target datalayout = "e-m:e-p270:32:32-p271:32:32-p272:64:64-i64:64-i128:128-f80:128-n8:16:32:64-S128"
target triple = "x86_64-pc-linux-gnu"

%class.vector.32 = type { ptr }
%class.app = type { %class.expr, ptr, i32, %struct.app_flags, [0 x ptr] }
%class.expr = type { %class.ast }
%class.ast = type { i32, i32, i32, i32 }
%struct.app_flags = type <{ i16, i8, i8 }>
%class.var = type { %class.expr, i32, ptr }

; Function Attrs: mustprogress nounwind uwtable
define linkonce_odr hidden noundef i32 @_ZNK3ast8get_kindEv(ptr noundef nonnull align 4 dereferenceable(16) %0) #7 comdat align 2 {
  %2 = alloca ptr, align 8
  store ptr %0, ptr %2, align 8, !tbaa !353
  %3 = load ptr, ptr %2, align 8
  %4 = getelementptr inbounds nuw %class.ast, ptr %3, i32 0, i32 1
  %5 = load i32, ptr %4, align 4
  %6 = and i32 %5, 65535
  ret i32 %6
}

; Function Attrs: mustprogress uwtable
define linkonce_odr hidden noundef nonnull align 8 dereferenceable(8) ptr @_ZN6vectorIjLb0EjE9push_backEOj(ptr noundef nonnull align 8 dereferenceable(8) %0, ptr noundef nonnull align 4 dereferenceable(4) %1) #4 comdat align 2 {
  %3 = alloca ptr, align 8
  %4 = alloca ptr, align 8
  store ptr %0, ptr %3, align 8, !tbaa !258
  store ptr %1, ptr %4, align 8, !tbaa !16
  %5 = load ptr, ptr %3, align 8
  %6 = getelementptr inbounds nuw %class.vector.32, ptr %5, i32 0, i32 0
  %7 = load ptr, ptr %6, align 8, !tbaa !260
  %8 = icmp eq ptr %7, null
  br i1 %8, label %19, label %9

9:                                                ; preds = %2
  %10 = getelementptr inbounds nuw %class.vector.32, ptr %5, i32 0, i32 0
  %11 = load ptr, ptr %10, align 8, !tbaa !260
  %12 = getelementptr inbounds i32, ptr %11, i64 -1
  %13 = load i32, ptr %12, align 4, !tbaa !14
  %14 = getelementptr inbounds nuw %class.vector.32, ptr %5, i32 0, i32 0
  %15 = load ptr, ptr %14, align 8, !tbaa !260
  %16 = getelementptr inbounds i32, ptr %15, i64 -2
  %17 = load i32, ptr %16, align 4, !tbaa !14
  %18 = icmp eq i32 %13, %17
  br i1 %18, label %19, label %20

19:                                               ; preds = %9, %2
  call void @_ZN6vectorIjLb0EjE13expand_vectorEv(ptr noundef nonnull align 8 dereferenceable(8) %5)
  br label %20

20:                                               ; preds = %19, %9
  %21 = getelementptr inbounds nuw %class.vector.32, ptr %5, i32 0, i32 0
  %22 = load ptr, ptr %21, align 8, !tbaa !260
  %23 = getelementptr inbounds nuw %class.vector.32, ptr %5, i32 0, i32 0
  %24 = load ptr, ptr %23, align 8, !tbaa !260
  %25 = getelementptr inbounds i32, ptr %24, i64 -1
  %26 = load i32, ptr %25, align 4, !tbaa !14
  %27 = zext i32 %26 to i64
  %28 = getelementptr inbounds nuw i32, ptr %22, i64 %27
  %29 = load ptr, ptr %4, align 8, !tbaa !16
  %30 = load i32, ptr %29, align 4, !tbaa !14
  store i32 %30, ptr %28, align 4, !tbaa !14
  %31 = getelementptr inbounds nuw %class.vector.32, ptr %5, i32 0, i32 0
  %32 = load ptr, ptr %31, align 8, !tbaa !260
  %33 = getelementptr inbounds i32, ptr %32, i64 -1
  %34 = load i32, ptr %33, align 4, !tbaa !14
  %35 = add i32 %34, 1
  store i32 %35, ptr %33, align 4, !tbaa !14
  ret ptr %5
}

; Function Attrs: mustprogress nounwind uwtable
define linkonce_odr hidden noundef i32 @_ZNK3var7get_idxEv(ptr noundef nonnull align 8 dereferenceable(32) %0) #7 comdat align 2 {
  %2 = alloca ptr, align 8
  store ptr %0, ptr %2, align 8, !tbaa !355
  %3 = load ptr, ptr %2, align 8
  %4 = getelementptr inbounds nuw %class.var, ptr %3, i32 0, i32 1
  %5 = load i32, ptr %4, align 8, !tbaa !357
  ret i32 %5
}

; Function Attrs: inlinehint mustprogress nounwind uwtable
define linkonce_odr hidden noundef ptr @_Z6to_varP3ast(ptr noundef %0) #6 comdat {
  %2 = alloca ptr, align 8
  store ptr %0, ptr %2, align 8, !tbaa !353
  %3 = load ptr, ptr %2, align 8, !tbaa !353
  ret ptr %3
}

; Function Attrs: inlinehint mustprogress uwtable
define linkonce_odr hidden noundef zeroext i1 @_Z6is_varPK3ast(ptr noundef %0) #8 comdat {
  %2 = alloca ptr, align 8
  store ptr %0, ptr %2, align 8, !tbaa !353
  %3 = load ptr, ptr %2, align 8, !tbaa !353
  %4 = call noundef i32 @_ZNK3ast8get_kindEv(ptr noundef nonnull align 4 dereferenceable(16) %3)
  %5 = icmp eq i32 %4, 1
  ret i1 %5
}

; Function Attrs: mustprogress nounwind uwtable
define linkonce_odr hidden noundef ptr @_ZNK3app7get_argEj(ptr noundef nonnull align 8 dereferenceable(32) %0, i32 noundef %1) #7 comdat align 2 {
  %3 = alloca ptr, align 8
  %4 = alloca i32, align 4
  store ptr %0, ptr %3, align 8, !tbaa !263
  store i32 %1, ptr %4, align 4, !tbaa !14
  %5 = load ptr, ptr %3, align 8
  %6 = getelementptr inbounds nuw %class.app, ptr %5, i32 0, i32 4
  %7 = load i32, ptr %4, align 4, !tbaa !14
  %8 = zext i32 %7 to i64
  %9 = getelementptr inbounds nuw [0 x ptr], ptr %6, i64 0, i64 %8
  %10 = load ptr, ptr %9, align 8, !tbaa !346
  ret ptr %10
}

; Function Attrs: mustprogress nounwind uwtable
define linkonce_odr hidden noundef i32 @_ZNK3app12get_num_argsEv(ptr noundef nonnull align 8 dereferenceable(32) %0) #7 comdat align 2 {
  %2 = alloca ptr, align 8
  store ptr %0, ptr %2, align 8, !tbaa !263
  %3 = load ptr, ptr %2, align 8
  %4 = getelementptr inbounds nuw %class.app, ptr %3, i32 0, i32 2
  %5 = load i32, ptr %4, align 8, !tbaa !348
  ret i32 %5
}

; Function Attrs: mustprogress uwtable
define hidden void @_ZN7datalog8compiler32get_local_indexes_for_projectionEP3appR11var_counterjR7svectorIjjE(ptr noundef nonnull align 8 dereferenceable(192) %0, ptr noundef %1, ptr noundef nonnull align 8 dereferenceable(224) %2, i32 noundef %3, ptr noundef nonnull align 8 dereferenceable(8) %4) #4 align 2 {
  %6 = alloca ptr, align 8
  %7 = alloca ptr, align 8
  %8 = alloca ptr, align 8
  %9 = alloca i32, align 4
  %10 = alloca ptr, align 8
  %11 = alloca i32, align 4
  %12 = alloca i32, align 4
  %13 = alloca ptr, align 8
  %14 = alloca i32, align 4
  store ptr %0, ptr %6, align 8, !tbaa !3
  store ptr %1, ptr %7, align 8, !tbaa !263
  store ptr %2, ptr %8, align 8, !tbaa !344
  store i32 %3, ptr %9, align 4, !tbaa !14
  store ptr %4, ptr %10, align 8, !tbaa !256
  call void @llvm.lifetime.start.p0(i64 4, ptr %11) #3
  %15 = load ptr, ptr %7, align 8, !tbaa !263
  %16 = call noundef i32 @_ZNK3app12get_num_argsEv(ptr noundef nonnull align 8 dereferenceable(32) %15)
  store i32 %16, ptr %11, align 4, !tbaa !14
  call void @llvm.lifetime.start.p0(i64 4, ptr %12) #3
  store i32 0, ptr %12, align 4, !tbaa !14
  br label %17

17:                                               ; preds = %47, %5
  %18 = load i32, ptr %12, align 4, !tbaa !14
  %19 = load i32, ptr %11, align 4, !tbaa !14
  %20 = icmp ult i32 %18, %19
  br i1 %20, label %22, label %21

21:                                               ; preds = %17
  call void @llvm.lifetime.end.p0(i64 4, ptr %12) #3
  br label %50

22:                                               ; preds = %17
  call void @llvm.lifetime.start.p0(i64 8, ptr %13) #3
  %23 = load ptr, ptr %7, align 8, !tbaa !263
  %24 = load i32, ptr %12, align 4, !tbaa !14
  %25 = call noundef ptr @_ZNK3app7get_argEj(ptr noundef nonnull align 8 dereferenceable(32) %23, i32 noundef %24)
  store ptr %25, ptr %13, align 8, !tbaa !346
  %26 = load ptr, ptr %13, align 8, !tbaa !346
  %27 = call noundef zeroext i1 @_Z6is_varPK3ast(ptr noundef %26)
  br i1 %27, label %28, label %46

28:                                               ; preds = %22
  %29 = load ptr, ptr %8, align 8, !tbaa !344
  %30 = load ptr, ptr %13, align 8, !tbaa !346
  %31 = call noundef ptr @_Z6to_varP3ast(ptr noundef %30)
  %32 = call noundef i32 @_ZNK3var7get_idxEv(ptr noundef nonnull align 8 dereferenceable(32) %31)
  %33 = call noundef nonnull align 4 dereferenceable(4) ptr @_ZN7counter3getEj(ptr noundef nonnull align 8 dereferenceable(24) %29, i32 noundef %32)
  %34 = load i32, ptr %33, align 4, !tbaa !14
  %35 = icmp sgt i32 %34, 0
  br i1 %35, label %36, label %46

36:                                               ; preds = %28
  %37 = load ptr, ptr %8, align 8, !tbaa !344
  %38 = load ptr, ptr %13, align 8, !tbaa !346
  %39 = call noundef ptr @_Z6to_varP3ast(ptr noundef %38)
  %40 = call noundef i32 @_ZNK3var7get_idxEv(ptr noundef nonnull align 8 dereferenceable(32) %39)
  call void @_ZN7counter6updateEji(ptr noundef nonnull align 8 dereferenceable(24) %37, i32 noundef %40, i32 noundef -1)
  %41 = load ptr, ptr %10, align 8, !tbaa !256
  call void @llvm.lifetime.start.p0(i64 4, ptr %14) #3
  %42 = load i32, ptr %12, align 4, !tbaa !14
  %43 = load i32, ptr %9, align 4, !tbaa !14
  %44 = add i32 %42, %43
  store i32 %44, ptr %14, align 4, !tbaa !14
  %45 = call noundef nonnull align 8 dereferenceable(8) ptr @_ZN6vectorIjLb0EjE9push_backEOj(ptr noundef nonnull align 8 dereferenceable(8) %41, ptr noundef nonnull align 4 dereferenceable(4) %14)
  call void @llvm.lifetime.end.p0(i64 4, ptr %14) #3
  br label %46

46:                                               ; preds = %36, %28, %22
  call void @llvm.lifetime.end.p0(i64 8, ptr %13) #3
  br label %47

47:                                               ; preds = %46
  %48 = load i32, ptr %12, align 4, !tbaa !14
  %49 = add i32 %48, 1
  store i32 %49, ptr %12, align 4, !tbaa !14
  br label %17, !llvm.loop !347

50:                                               ; preds = %21
  call void @llvm.lifetime.end.p0(i64 4, ptr %11) #3
  ret void
}