; Function Attrs: mustprogress uwtable
define hidden void @_ZN7datalog8compiler32get_local_indexes_for_projectionEP3appR11var_counterjR7svectorIjjE(ptr noundef nonnull readnone align 8 captures(none) dereferenceable(192) %0, ptr noundef readonly captures(none) %1, ptr noundef nonnull align 8 dereferenceable(224) %2, i32 noundef %3, ptr noundef nonnull align 8 dereferenceable(8) %4) local_unnamed_addr #3 align 2 {
  %6 = getelementptr inbounds nuw i8, ptr %1, i64 24
  %7 = load i32, ptr %6, align 8, !tbaa !365
  %.not = icmp eq i32 %7, 0
  br i1 %.not, label %._crit_edge, label %.lr.ph

.lr.ph:                                           ; preds = %5
  %8 = getelementptr inbounds nuw i8, ptr %1, i64 32
  %wide.trip.count = zext i32 %7 to i64
  br label %9

._crit_edge:                                      ; preds = %41, %5
  ret void

9:                                                ; preds = %.lr.ph, %41
  %indvars.iv = phi i64 [ 0, %.lr.ph ], [ %indvars.iv.next, %41 ]
  %10 = getelementptr inbounds nuw [0 x ptr], ptr %8, i64 0, i64 %indvars.iv
  %11 = load ptr, ptr %10, align 8, !tbaa !369
  %12 = getelementptr inbounds nuw i8, ptr %11, i64 4
  %13 = load i32, ptr %12, align 4
  %14 = and i32 %13, 65535
  %15 = icmp eq i32 %14, 1
  br i1 %15, label %16, label %41

16:                                               ; preds = %9
  %17 = getelementptr inbounds nuw i8, ptr %11, i64 16
  %18 = load i32, ptr %17, align 8, !tbaa !370
  %19 = tail call noundef nonnull align 4 dereferenceable(4) ptr @_ZN7counter3getEj(ptr noundef nonnull align 8 dereferenceable(24) %2, i32 noundef %18)
  %20 = load i32, ptr %19, align 4, !tbaa !24
  %21 = icmp sgt i32 %20, 0
  br i1 %21, label %22, label %41

22:                                               ; preds = %16
  %23 = load i32, ptr %17, align 8, !tbaa !370
  tail call void @_ZN7counter6updateEji(ptr noundef nonnull align 8 dereferenceable(24) %2, i32 noundef %23, i32 noundef -1)
  %24 = trunc nuw i64 %indvars.iv to i32
  %25 = add i32 %3, %24
  %26 = load ptr, ptr %4, align 8, !tbaa !254
  %27 = icmp eq ptr %26, null
  br i1 %27, label %34, label %28

28:                                               ; preds = %22
  %29 = getelementptr inbounds i8, ptr %26, i64 -4
  %30 = load i32, ptr %29, align 4, !tbaa !24
  %31 = getelementptr inbounds i8, ptr %26, i64 -8
  %32 = load i32, ptr %31, align 4, !tbaa !24
  %33 = icmp eq i32 %30, %32
  br i1 %33, label %34, label %_ZN6vectorIjLb0EjE9push_backEOj.exit

34:                                               ; preds = %28, %22
  tail call void @_ZN6vectorIjLb0EjE13expand_vectorEv(ptr noundef nonnull align 8 dereferenceable(8) %4)
  %.pre.i = load ptr, ptr %4, align 8, !tbaa !254
  %.phi.trans.insert.i = getelementptr inbounds i8, ptr %.pre.i, i64 -4
  %.pre2.i = load i32, ptr %.phi.trans.insert.i, align 4, !tbaa !24
  br label %_ZN6vectorIjLb0EjE9push_backEOj.exit

_ZN6vectorIjLb0EjE9push_backEOj.exit:             ; preds = %28, %34
  %35 = phi i32 [ %.pre2.i, %34 ], [ %30, %28 ]
  %36 = phi ptr [ %.pre.i, %34 ], [ %26, %28 ]
  %37 = getelementptr inbounds i8, ptr %36, i64 -4
  %38 = zext i32 %35 to i64
  %39 = getelementptr inbounds nuw i32, ptr %36, i64 %38
  store i32 %25, ptr %39, align 4, !tbaa !24
  %40 = add i32 %35, 1
  store i32 %40, ptr %37, align 4, !tbaa !24
  br label %41

41:                                               ; preds = %_ZN6vectorIjLb0EjE9push_backEOj.exit, %16, %9
  %indvars.iv.next = add nuw nsw i64 %indvars.iv, 1
  %exitcond.not = icmp eq i64 %indvars.iv.next, %wide.trip.count
  br i1 %exitcond.not, label %._crit_edge, label %9, !llvm.loop !372
}